target datalayout = "e-m:e-p270:32:32-p271:32:32-p272:64:64-i64:64-i128:128-f80:128-n8:16:32:64-S128"
target triple = "x86_64-pc-linux-gnu"

%struct.darktable_t = type { %struct.dt_codepath_t, i32, i32, ptr, ptr, ptr, ptr, ptr, ptr, ptr, ptr, ptr, ptr, ptr, ptr, ptr, ptr, ptr, ptr, ptr, ptr, ptr, ptr, ptr, ptr, ptr, ptr, ptr, ptr, ptr, [64 x %struct.dt_pthread_mutex_t], %struct.dt_pthread_mutex_t, %struct.dt_pthread_mutex_t, %struct.dt_pthread_mutex_t, %struct.dt_pthread_mutex_t, %struct.dt_pthread_mutex_t, ptr, ptr, ptr, ptr, ptr, ptr, ptr, ptr, ptr, ptr, ptr, ptr, ptr, %struct.dt_lua_state_t, ptr, double, ptr, i32, [47 x i32], i32, i32, ptr, ptr, %struct.dt_sys_resources_t, %struct.dt_backthumb_t, %struct.dt_gimp_t }
%struct.dt_codepath_t = type { i8, [3 x i8] }
%struct.dt_pthread_mutex_t = type { %union.pthread_mutex_t }
%union.pthread_mutex_t = type { %struct.__pthread_mutex_s }
%struct.__pthread_mutex_s = type { i32, i32, i32, i32, i32, i16, i16, %struct.__pthread_internal_list }
%struct.__pthread_internal_list = type { ptr, ptr }
%struct.dt_lua_state_t = type { i32 }
%struct.dt_sys_resources_t = type { i64, i64, ptr, ptr, i32 }
%struct.dt_backthumb_t = type { double, double, i32, i32, i32, i32 }
%struct.dt_gimp_t = type { i32, ptr, ptr, i32, i32 }

@darktable = external global %struct.darktable_t, align 8
@.str = private unnamed_addr constant [26 x i8] c"application_directory: %s\00", align 1
@.str.3 = private unnamed_addr constant [10 x i8] c"darktable\00", align 1
@.str.4 = private unnamed_addr constant [20 x i8] c"darktable.configdir\00", align 1
@.str.5 = private unnamed_addr constant [17 x i8] c"darktable.tmpdir\00", align 1
@.str.6 = private unnamed_addr constant [19 x i8] c"darktable.cachedir\00", align 1
@.str.7 = private unnamed_addr constant [17 x i8] c"../lib/darktable\00", align 1
@.str.8 = private unnamed_addr constant [20 x i8] c"darktable.plugindir\00", align 1
@.str.12 = private unnamed_addr constant [16 x i8] c"../share/locale\00", align 1
@.str.13 = private unnamed_addr constant [20 x i8] c"darktable.localedir\00", align 1
@.str.14 = private unnamed_addr constant [19 x i8] c"../share/darktable\00", align 1
@.str.15 = private unnamed_addr constant [18 x i8] c"darktable.datadir\00", align 1
@.str.16 = private unnamed_addr constant [9 x i8] c"../share\00", align 1
@.str.17 = private unnamed_addr constant [19 x i8] c"darktable.sharedir\00", align 1

; Function Attrs: nounwind uwtable
define i32 @dt_loc_init_tmp_dir(ptr noundef %0) #0 {
  %2 = alloca ptr, align 8
  store ptr %0, ptr %2, align 8, !tbaa !6
  %3 = load ptr, ptr %2, align 8, !tbaa !6
  %4 = call ptr @g_get_tmp_dir()
  %5 = call ptr @dt_loc_init_generic(ptr noundef %3, ptr noundef null, ptr noundef %4)
  store ptr %5, ptr getelementptr inbounds nuw (%struct.darktable_t, ptr @darktable, i32 0, i32 41), align 8, !tbaa !57
  %6 = load ptr, ptr getelementptr inbounds nuw (%struct.darktable_t, ptr @darktable, i32 0, i32 41), align 8, !tbaa !57
  %7 = call i32 @dt_check_opendir(ptr noundef @.str.5, ptr noundef %6)
  ret i32 %7
}

; Function Attrs: nounwind uwtable
define i32 @dt_loc_init_user_cache_dir(ptr noundef %0) #0 {
  %2 = alloca ptr, align 8
  %3 = alloca ptr, align 8
  store ptr %0, ptr %2, align 8, !tbaa !6
  call void @llvm.lifetime.start.p0(i64 8, ptr %3) #10
  %4 = call ptr @g_get_user_cache_dir()
  %5 = call noalias ptr (ptr, ...) @g_build_filename(ptr noundef %4, ptr noundef @.str.3, ptr noundef null)
  store ptr %5, ptr %3, align 8, !tbaa !6
  %6 = load ptr, ptr %2, align 8, !tbaa !6
  %7 = load ptr, ptr %3, align 8, !tbaa !6
  %8 = call ptr @dt_loc_init_generic(ptr noundef %6, ptr noundef null, ptr noundef %7)
  store ptr %8, ptr getelementptr inbounds nuw (%struct.darktable_t, ptr @darktable, i32 0, i32 43), align 8, !tbaa !56
  %9 = load ptr, ptr %3, align 8, !tbaa !6
  call void @g_free(ptr noundef %9)
  %10 = load ptr, ptr getelementptr inbounds nuw (%struct.darktable_t, ptr @darktable, i32 0, i32 43), align 8, !tbaa !56
  %11 = call i32 @dt_check_opendir(ptr noundef @.str.6, ptr noundef %10)
  call void @llvm.lifetime.end.p0(i64 8, ptr %3) #10
  ret i32 %11
}

; Function Attrs: nounwind uwtable
define i32 @dt_loc_init_user_config_dir(ptr noundef %0) #0 {
  %2 = alloca ptr, align 8
  %3 = alloca ptr, align 8
  store ptr %0, ptr %2, align 8, !tbaa !6
  call void @llvm.lifetime.start.p0(i64 8, ptr %3) #10
  %4 = call ptr @g_get_user_config_dir()
  %5 = call noalias ptr (ptr, ...) @g_build_filename(ptr noundef %4, ptr noundef @.str.3, ptr noundef null)
  store ptr %5, ptr %3, align 8, !tbaa !6
  %6 = load ptr, ptr %2, align 8, !tbaa !6
  %7 = load ptr, ptr %3, align 8, !tbaa !6
  %8 = call ptr @dt_loc_init_generic(ptr noundef %6, ptr noundef null, ptr noundef %7)
  store ptr %8, ptr getelementptr inbounds nuw (%struct.darktable_t, ptr @darktable, i32 0, i32 42), align 8, !tbaa !55
  %9 = load ptr, ptr %3, align 8, !tbaa !6
  call void @g_free(ptr noundef %9)
  %10 = load ptr, ptr getelementptr inbounds nuw (%struct.darktable_t, ptr @darktable, i32 0, i32 42), align 8, !tbaa !55
  %11 = call i32 @dt_check_opendir(ptr noundef @.str.4, ptr noundef %10)
  call void @llvm.lifetime.end.p0(i64 8, ptr %3) #10
  ret i32 %11
}

; Function Attrs: nounwind uwtable
define void @dt_loc_init_sharedir(ptr noundef %0) #0 {
  %2 = alloca ptr, align 8
  store ptr %0, ptr %2, align 8, !tbaa !6
  %3 = load ptr, ptr %2, align 8, !tbaa !6
  %4 = call ptr @dt_loc_init_generic(ptr noundef null, ptr noundef %3, ptr noundef @.str.16)
  store ptr %4, ptr getelementptr inbounds nuw (%struct.darktable_t, ptr @darktable, i32 0, i32 38), align 8, !tbaa !54
  %5 = load ptr, ptr getelementptr inbounds nuw (%struct.darktable_t, ptr @darktable, i32 0, i32 38), align 8, !tbaa !54
  %6 = call i32 @dt_check_opendir(ptr noundef @.str.17, ptr noundef %5)
  ret void
}

; Function Attrs: nounwind uwtable
define void @dt_loc_init_localedir(ptr noundef %0, ptr noundef %1) #0 {
  %3 = alloca ptr, align 8
  %4 = alloca ptr, align 8
  store ptr %0, ptr %3, align 8, !tbaa !6
  store ptr %1, ptr %4, align 8, !tbaa !6
  %5 = load ptr, ptr %4, align 8, !tbaa !6
  %6 = load ptr, ptr %3, align 8, !tbaa !6
  %7 = call ptr @dt_loc_init_generic(ptr noundef %5, ptr noundef %6, ptr noundef @.str.12)
  store ptr %7, ptr getelementptr inbounds nuw (%struct.darktable_t, ptr @darktable, i32 0, i32 40), align 8, !tbaa !53
  %8 = load ptr, ptr getelementptr inbounds nuw (%struct.darktable_t, ptr @darktable, i32 0, i32 40), align 8, !tbaa !53
  %9 = call i32 @dt_check_opendir(ptr noundef @.str.13, ptr noundef %8)
  ret void
}

; Function Attrs: nounwind uwtable
define void @dt_loc_init_plugindir(ptr noundef %0, ptr noundef %1) #0 {
  %3 = alloca ptr, align 8
  %4 = alloca ptr, align 8
  store ptr %0, ptr %3, align 8, !tbaa !6
  store ptr %1, ptr %4, align 8, !tbaa !6
  %5 = load ptr, ptr %4, align 8, !tbaa !6
  %6 = load ptr, ptr %3, align 8, !tbaa !6
  %7 = call ptr @dt_loc_init_generic(ptr noundef %5, ptr noundef %6, ptr noundef @.str.7)
  store ptr %7, ptr getelementptr inbounds nuw (%struct.darktable_t, ptr @darktable, i32 0, i32 39), align 8, !tbaa !52
  %8 = load ptr, ptr getelementptr inbounds nuw (%struct.darktable_t, ptr @darktable, i32 0, i32 39), align 8, !tbaa !52
  %9 = call i32 @dt_check_opendir(ptr noundef @.str.8, ptr noundef %8)
  ret void
}

; Function Attrs: nounwind uwtable
define void @dt_loc_init_datadir(ptr noundef %0, ptr noundef %1) #0 {
  %3 = alloca ptr, align 8
  %4 = alloca ptr, align 8
  store ptr %0, ptr %3, align 8, !tbaa !6
  store ptr %1, ptr %4, align 8, !tbaa !6
  %5 = load ptr, ptr %4, align 8, !tbaa !6
  %6 = load ptr, ptr %3, align 8, !tbaa !6
  %7 = call ptr @dt_loc_init_generic(ptr noundef %5, ptr noundef %6, ptr noundef @.str.14)
  store ptr %7, ptr getelementptr inbounds nuw (%struct.darktable_t, ptr @darktable, i32 0, i32 37), align 8, !tbaa !51
  %8 = load ptr, ptr getelementptr inbounds nuw (%struct.darktable_t, ptr @darktable, i32 0, i32 37), align 8, !tbaa !51
  %9 = call i32 @dt_check_opendir(ptr noundef @.str.15, ptr noundef %8)
  ret void
}

; Function Attrs: nounwind uwtable
define i32 @dt_loc_init(ptr noundef %0, ptr noundef %1, ptr noundef %2, ptr noundef %3, ptr noundef %4, ptr noundef %5) #0 {
  %7 = alloca i32, align 4
  %8 = alloca ptr, align 8
  %9 = alloca ptr, align 8
  %10 = alloca ptr, align 8
  %11 = alloca ptr, align 8
  %12 = alloca ptr, align 8
  %13 = alloca ptr, align 8
  %14 = alloca ptr, align 8
  %15 = alloca i32, align 4
  %16 = alloca i32, align 4
  %17 = alloca i32, align 4
  store ptr %0, ptr %8, align 8, !tbaa !6
  store ptr %1, ptr %9, align 8, !tbaa !6
  store ptr %2, ptr %10, align 8, !tbaa !6
  store ptr %3, ptr %11, align 8, !tbaa !6
  store ptr %4, ptr %12, align 8, !tbaa !6
  store ptr %5, ptr %13, align 8, !tbaa !6
  call void @llvm.lifetime.start.p0(i64 8, ptr %14) #10
  store ptr null, ptr %14, align 8, !tbaa !6
  call void @llvm.lifetime.start.p0(i64 4, ptr %15) #10
  call void @llvm.lifetime.start.p0(i64 4, ptr %16) #10
  %18 = call i32 @wai_getExecutablePath(ptr noundef null, i32 noundef 0, ptr noundef %15)
  store i32 %18, ptr %16, align 4, !tbaa !11
  %19 = load i32, ptr %16, align 4, !tbaa !11
  %20 = icmp sgt i32 %19, 0
  br i1 %20, label %21, label %33

21:                                               ; preds = %6
  %22 = load i32, ptr %16, align 4, !tbaa !11
  %23 = add nsw i32 %22, 1
  %24 = sext i32 %23 to i64
  %25 = call noalias ptr @malloc(i64 noundef %24) #11
  store ptr %25, ptr %14, align 8, !tbaa !6
  %26 = load ptr, ptr %14, align 8, !tbaa !6
  %27 = load i32, ptr %16, align 4, !tbaa !11
  %28 = call i32 @wai_getExecutablePath(ptr noundef %26, i32 noundef %27, ptr noundef %15)
  %29 = load ptr, ptr %14, align 8, !tbaa !6
  %30 = load i32, ptr %15, align 4, !tbaa !11
  %31 = sext i32 %30 to i64
  %32 = getelementptr inbounds i8, ptr %29, i64 %31
  store i8 0, ptr %32, align 1, !tbaa !13
  br label %33

33:                                               ; preds = %21, %6
  br label %34

34:                                               ; preds = %33
  %35 = load i32, ptr getelementptr inbounds nuw (%struct.darktable_t, ptr @darktable, i32 0, i32 2), align 8, !tbaa !14
  %36 = and i32 4, %35
  %37 = icmp ne i32 %36, 0
  br i1 %37, label %38, label %45

38:                                               ; preds = %34
  %39 = load i32, ptr getelementptr inbounds nuw (%struct.darktable_t, ptr @darktable, i32 0, i32 2), align 8, !tbaa !14
  %40 = xor i32 %39, -1
  %41 = and i32 0, %40
  %42 = icmp ne i32 %41, 0
  br i1 %42, label %45, label %43

43:                                               ; preds = %38
  %44 = load ptr, ptr %14, align 8, !tbaa !6
  call void (ptr, ...) @dt_print_ext(ptr noundef @.str, ptr noundef %44)
  br label %45

45:                                               ; preds = %43, %38, %34
  br label %46

46:                                               ; preds = %45
  br label %47

47:                                               ; preds = %46
  %48 = load ptr, ptr %14, align 8, !tbaa !6
  %49 = load ptr, ptr %8, align 8, !tbaa !6
  call void @dt_loc_init_datadir(ptr noundef %48, ptr noundef %49)
  %50 = load ptr, ptr %14, align 8, !tbaa !6
  %51 = load ptr, ptr %9, align 8, !tbaa !6
  call void @dt_loc_init_plugindir(ptr noundef %50, ptr noundef %51)
  %52 = load ptr, ptr %14, align 8, !tbaa !6
  %53 = load ptr, ptr %10, align 8, !tbaa !6
  call void @dt_loc_init_localedir(ptr noundef %52, ptr noundef %53)
  %54 = load ptr, ptr %14, align 8, !tbaa !6
  call void @dt_loc_init_sharedir(ptr noundef %54)
  %55 = load ptr, ptr %14, align 8, !tbaa !6
  call void @free(ptr noundef %55) #10
  %56 = load ptr, ptr %11, align 8, !tbaa !6
  %57 = call i32 @dt_loc_init_user_config_dir(ptr noundef %56)
  %58 = icmp ne i32 %57, 0
  br i1 %58, label %60, label %59

59:                                               ; preds = %47
  store i32 0, ptr %7, align 4
  store i32 1, ptr %17, align 4
  br label %71

60:                                               ; preds = %47
  %61 = load ptr, ptr %12, align 8, !tbaa !6
  %62 = call i32 @dt_loc_init_user_cache_dir(ptr noundef %61)
  %63 = icmp ne i32 %62, 0
  br i1 %63, label %65, label %64

64:                                               ; preds = %60
  store i32 0, ptr %7, align 4
  store i32 1, ptr %17, align 4
  br label %71

65:                                               ; preds = %60
  %66 = load ptr, ptr %13, align 8, !tbaa !6
  %67 = call i32 @dt_loc_init_tmp_dir(ptr noundef %66)
  %68 = icmp ne i32 %67, 0
  br i1 %68, label %70, label %69

69:                                               ; preds = %65
  store i32 0, ptr %7, align 4
  store i32 1, ptr %17, align 4
  br label %71

70:                                               ; preds = %65
  store i32 1, ptr %7, align 4
  store i32 1, ptr %17, align 4
  br label %71

71:                                               ; preds = %70, %69, %64, %59
  call void @llvm.lifetime.end.p0(i64 4, ptr %16) #10
  call void @llvm.lifetime.end.p0(i64 4, ptr %15) #10
  call void @llvm.lifetime.end.p0(i64 8, ptr %14) #10
  %72 = load i32, ptr %7, align 4
  ret i32 %72
}