; Function Attrs: nounwind uwtable
define range(i32 0, 2) i32 @dt_loc_init(ptr noundef %0, ptr noundef %1, ptr noundef %2, ptr noundef %3, ptr noundef %4, ptr noundef %5) local_unnamed_addr #0 {
  %7 = alloca i32, align 4
  call void @llvm.lifetime.start.p0(i64 4, ptr nonnull %7) #11
  %8 = call i32 @wai_getExecutablePath(ptr noundef null, i32 noundef 0, ptr noundef nonnull %7) #11
  %9 = icmp sgt i32 %8, 0
  br i1 %9, label %10, label %18

10:                                               ; preds = %6
  %11 = add nuw nsw i32 %8, 1
  %12 = zext nneg i32 %11 to i64
  %13 = call noalias ptr @malloc(i64 noundef %12) #12
  %14 = call i32 @wai_getExecutablePath(ptr noundef %13, i32 noundef %8, ptr noundef nonnull %7) #11
  %15 = load i32, ptr %7, align 4, !tbaa !6
  %16 = sext i32 %15 to i64
  %17 = getelementptr inbounds i8, ptr %13, i64 %16
  store i8 0, ptr %17, align 1, !tbaa !10
  br label %18

18:                                               ; preds = %6, %10
  %.017 = phi ptr [ %13, %10 ], [ null, %6 ]
  %19 = load i32, ptr getelementptr inbounds nuw (i8, ptr @darktable, i64 8), align 8, !tbaa !11
  %20 = and i32 %19, 4
  %.not = icmp eq i32 %20, 0
  br i1 %.not, label %22, label %21

21:                                               ; preds = %18
  call void (ptr, ...) @dt_print_ext(ptr noundef nonnull @.str, ptr noundef %.017) #11
  br label %22

22:                                               ; preds = %21, %18
  %23 = call ptr @dt_loc_init_generic(ptr noundef %0, ptr noundef %.017, ptr noundef nonnull @.str.14)
  store ptr %23, ptr getelementptr inbounds nuw (i8, ptr @darktable, i64 3000), align 8, !tbaa !50
  %24 = call i32 @dt_check_opendir(ptr noundef nonnull @.str.15, ptr noundef %23)
  %25 = call ptr @dt_loc_init_generic(ptr noundef %1, ptr noundef %.017, ptr noundef nonnull @.str.7)
  store ptr %25, ptr getelementptr inbounds nuw (i8, ptr @darktable, i64 3016), align 8, !tbaa !51
  %26 = call i32 @dt_check_opendir(ptr noundef nonnull @.str.8, ptr noundef %25)
  %27 = call ptr @dt_loc_init_generic(ptr noundef %2, ptr noundef %.017, ptr noundef nonnull @.str.12)
  store ptr %27, ptr getelementptr inbounds nuw (i8, ptr @darktable, i64 3024), align 8, !tbaa !52
  %28 = call i32 @dt_check_opendir(ptr noundef nonnull @.str.13, ptr noundef %27)
  %29 = call ptr @dt_loc_init_generic(ptr noundef null, ptr noundef %.017, ptr noundef nonnull @.str.16)
  store ptr %29, ptr getelementptr inbounds nuw (i8, ptr @darktable, i64 3008), align 8, !tbaa !53
  %30 = call i32 @dt_check_opendir(ptr noundef nonnull @.str.17, ptr noundef %29)
  call void @free(ptr noundef %.017) #11
  %31 = call ptr @g_get_user_config_dir() #11
  %32 = call noalias ptr (ptr, ...) @g_build_filename(ptr noundef %31, ptr noundef nonnull @.str.3, ptr noundef null) #11
  %33 = call ptr @dt_loc_init_generic(ptr noundef %3, ptr noundef null, ptr noundef %32)
  store ptr %33, ptr getelementptr inbounds nuw (i8, ptr @darktable, i64 3040), align 8, !tbaa !54
  call void @g_free(ptr noundef %32) #11
  %34 = load ptr, ptr getelementptr inbounds nuw (i8, ptr @darktable, i64 3040), align 8, !tbaa !54
  %35 = call range(i32 0, 2) i32 @dt_check_opendir(ptr noundef nonnull @.str.4, ptr noundef %34)
  %.not19 = icmp eq i32 %35, 0
  br i1 %.not19, label %46, label %36

36:                                               ; preds = %22
  %37 = call ptr @g_get_user_cache_dir() #11
  %38 = call noalias ptr (ptr, ...) @g_build_filename(ptr noundef %37, ptr noundef nonnull @.str.3, ptr noundef null) #11
  %39 = call ptr @dt_loc_init_generic(ptr noundef %4, ptr noundef null, ptr noundef %38)
  store ptr %39, ptr getelementptr inbounds nuw (i8, ptr @darktable, i64 3048), align 8, !tbaa !55
  call void @g_free(ptr noundef %38) #11
  %40 = load ptr, ptr getelementptr inbounds nuw (i8, ptr @darktable, i64 3048), align 8, !tbaa !55
  %41 = call range(i32 0, 2) i32 @dt_check_opendir(ptr noundef nonnull @.str.6, ptr noundef %40)
  %.not20 = icmp eq i32 %41, 0
  br i1 %.not20, label %46, label %42

42:                                               ; preds = %36
  %43 = call ptr @g_get_tmp_dir() #11
  %44 = call ptr @dt_loc_init_generic(ptr noundef %5, ptr noundef null, ptr noundef %43)
  store ptr %44, ptr getelementptr inbounds nuw (i8, ptr @darktable, i64 3032), align 8, !tbaa !56
  %45 = call range(i32 0, 2) i32 @dt_check_opendir(ptr noundef nonnull @.str.5, ptr noundef %44)
  br label %46

46:                                               ; preds = %42, %36, %22
  %.0 = phi i32 [ 0, %22 ], [ 0, %36 ], [ %45, %42 ]
  call void @llvm.lifetime.end.p0(i64 4, ptr nonnull %7) #11
  ret i32 %.0
}